; ModuleID = 'source-C-CXX/41/1009.cpp'
source_filename = "source-C-CXX/41/1009.cpp"
target datalayout = "e-m:e-p270:32:32-p271:32:32-p272:64:64-i64:64-f80:128-n8:16:32:64-S128"
target triple = "x86_64-pc-linux-gnu"

%"class.std::ios_base::Init" = type { i8 }
%"class.std::basic_istream" = type { i32 (...)**, i64, %"class.std::basic_ios" }
%"class.std::basic_ios" = type { %"class.std::ios_base", %"class.std::basic_ostream"*, i8, i8, %"class.std::basic_streambuf"*, %"class.std::ctype"*, %"class.std::num_put"*, %"class.std::num_get"* }
%"class.std::ios_base" = type { i32 (...)**, i64, i64, i32, i32, i32, %"struct.std::ios_base::_Callback_list"*, %"struct.std::ios_base::_Words", [8 x %"struct.std::ios_base::_Words"], i32, %"struct.std::ios_base::_Words"*, %"class.std::locale" }
%"struct.std::ios_base::_Callback_list" = type { %"struct.std::ios_base::_Callback_list"*, void (i32, %"class.std::ios_base"*, i32)*, i32, i32 }
%"struct.std::ios_base::_Words" = type { i8*, i64 }
%"class.std::locale" = type { %"class.std::locale::_Impl"* }
%"class.std::locale::_Impl" = type { i32, %"class.std::locale::facet"**, i64, %"class.std::locale::facet"**, i8** }
%"class.std::locale::facet" = type <{ i32 (...)**, i32, [4 x i8] }>
%"class.std::basic_ostream" = type { i32 (...)**, %"class.std::basic_ios" }
%"class.std::basic_streambuf" = type { i32 (...)**, i8*, i8*, i8*, i8*, i8*, i8*, %"class.std::locale" }
%"class.std::ctype" = type <{ %"class.std::locale::facet.base", [4 x i8], %struct.__locale_struct*, i8, [7 x i8], i32*, i32*, i16*, i8, [256 x i8], [256 x i8], i8, [6 x i8] }>
%"class.std::locale::facet.base" = type <{ i32 (...)**, i32 }>
%struct.__locale_struct = type { [13 x %struct.__locale_data*], i16*, i32*, i32*, [13 x i8*] }
%struct.__locale_data = type opaque
%"class.std::num_put" = type { %"class.std::locale::facet.base", [4 x i8] }
%"class.std::num_get" = type { %"class.std::locale::facet.base", [4 x i8] }

@_ZStL8__ioinit = internal global %"class.std::ios_base::Init" zeroinitializer, align 1
@__dso_handle = external hidden global i8
@_ZSt3cin = external global %"class.std::basic_istream", align 8
@_ZSt4cout = external global %"class.std::basic_ostream", align 8
@.str = private unnamed_addr constant [2 x i8] c" \00", align 1
@llvm.global_ctors = appending global [1 x { i32, void ()*, i8* }] [{ i32, void ()*, i8* } { i32 65535, void ()* @_GLOBAL__sub_I_1009.cpp, i8* null }]

declare void @_ZNSt8ios_base4InitC1Ev(%"class.std::ios_base::Init"* nonnull align 1 dereferenceable(1)) unnamed_addr #0

; Function Attrs: nounwind
declare void @_ZNSt8ios_base4InitD1Ev(%"class.std::ios_base::Init"* nonnull align 1 dereferenceable(1)) unnamed_addr #1

; Function Attrs: nofree nounwind
declare i32 @__cxa_atexit(void (i8*)*, i8*, i8*) local_unnamed_addr #2

; Function Attrs: mustprogress norecurse sspstrong uwtable
define dso_local i32 @main() local_unnamed_addr #3 {
  %1 = alloca i32, align 4
  %2 = alloca [100000 x i32], align 16
  %3 = alloca i32, align 4
  %4 = bitcast i32* %1 to i8*
  call void @llvm.lifetime.start.p0i8(i64 4, i8* nonnull %4) #7
  %5 = call nonnull align 8 dereferenceable(16) %"class.std::basic_istream"* @_ZNSirsERi(%"class.std::basic_istream"* nonnull align 8 dereferenceable(16) @_ZSt3cin, i32* nonnull align 4 dereferenceable(4) %1)
  %6 = bitcast [100000 x i32]* %2 to i8*
  call void @llvm.lifetime.start.p0i8(i64 400000, i8* nonnull %6) #7
  %7 = bitcast i32* %3 to i8*
  call void @llvm.lifetime.start.p0i8(i64 4, i8* nonnull %7) #7
  %8 = load i32, i32* %1, align 4, !tbaa !5
  %9 = icmp sgt i32 %8, 0
  br i1 %9, label %10, label %18

10:                                               ; preds = %0, %10
  %11 = phi i64 [ %14, %10 ], [ 0, %0 ]
  %12 = getelementptr inbounds [100000 x i32], [100000 x i32]* %2, i64 0, i64 %11
  %13 = call nonnull align 8 dereferenceable(16) %"class.std::basic_istream"* @_ZNSirsERi(%"class.std::basic_istream"* nonnull align 8 dereferenceable(16) @_ZSt3cin, i32* nonnull align 4 dereferenceable(4) %12)
  %14 = add nuw nsw i64 %11, 1
  %15 = load i32, i32* %1, align 4, !tbaa !5
  %16 = sext i32 %15 to i64
  %17 = icmp slt i64 %14, %16
  br i1 %17, label %10, label %18, !llvm.loop !9

18:                                               ; preds = %10, %0
  %19 = call nonnull align 8 dereferenceable(16) %"class.std::basic_istream"* @_ZNSirsERi(%"class.std::basic_istream"* nonnull align 8 dereferenceable(16) @_ZSt3cin, i32* nonnull align 4 dereferenceable(4) %3)
  %20 = load i32, i32* %1, align 4, !tbaa !5
  %21 = load i32, i32* %3, align 4
  %22 = icmp sgt i32 %20, 0
  br i1 %22, label %23, label %30

23:                                               ; preds = %18
  %24 = add nsw i32 %20, -1
  %25 = zext i32 %20 to i64
  %26 = zext i32 %24 to i64
  %27 = zext i32 %20 to i64
  %28 = sub nsw i64 1, %25
  %29 = sub nsw i64 1, %25
  br label %35

30:                                               ; preds = %128, %18
  %31 = phi i32 [ 0, %18 ], [ %129, %128 ]
  %32 = xor i32 %31, -1
  %33 = add i32 %20, %32
  %34 = icmp slt i32 %33, 0
  br i1 %34, label %149, label %133

35:                                               ; preds = %23, %128
  %36 = phi i64 [ 0, %23 ], [ %132, %128 ]
  %37 = phi i64 [ %27, %23 ], [ %131, %128 ]
  %38 = phi i64 [ %25, %23 ], [ %52, %128 ]
  %39 = phi i32 [ 0, %23 ], [ %129, %128 ]
  %40 = phi i32 [ %20, %23 ], [ %53, %128 ]
  %41 = sub i64 %25, %36
  %42 = call i64 @llvm.smax.i64(i64 %41, i64 %26)
  %43 = add i64 %29, %36
  %44 = add i64 %42, %43
  %45 = add i64 %44, -8
  %46 = lshr i64 %45, 3
  %47 = add nuw nsw i64 %46, 1
  %48 = sub i64 %25, %36
  %49 = call i64 @llvm.smax.i64(i64 %48, i64 %26)
  %50 = add i64 %28, %36
  %51 = add i64 %49, %50
  %52 = add nsw i64 %38, -1
  %53 = add nsw i32 %40, -1
  %54 = zext i32 %53 to i64
  %55 = getelementptr inbounds [100000 x i32], [100000 x i32]* %2, i64 0, i64 %54
  %56 = load i32, i32* %55, align 4, !tbaa !5
  %57 = icmp eq i32 %56, %21
  br i1 %57, label %58, label %128

58:                                               ; preds = %35
  %59 = add nsw i32 %39, 1
  %60 = icmp slt i64 %37, %25
  br i1 %60, label %61, label %128

61:                                               ; preds = %58
  %62 = icmp ult i64 %51, 8
  br i1 %62, label %119, label %63

63:                                               ; preds = %61
  %64 = and i64 %51, -8
  %65 = add i64 %52, %64
  %66 = and i64 %47, 1
  %67 = icmp ult i64 %45, 8
  br i1 %67, label %101, label %68

68:                                               ; preds = %63
  %69 = and i64 %47, 4611686018427387902
  br label %70

70:                                               ; preds = %70, %68
  %71 = phi i64 [ 0, %68 ], [ %98, %70 ]
  %72 = phi i64 [ %69, %68 ], [ %99, %70 ]
  %73 = add i64 %52, %71
  %74 = add i64 %38, %71
  %75 = getelementptr inbounds [100000 x i32], [100000 x i32]* %2, i64 0, i64 %74
  %76 = bitcast i32* %75 to <4 x i32>*
  %77 = load <4 x i32>, <4 x i32>* %76, align 4, !tbaa !5
  %78 = getelementptr inbounds i32, i32* %75, i64 4
  %79 = bitcast i32* %78 to <4 x i32>*
  %80 = load <4 x i32>, <4 x i32>* %79, align 4, !tbaa !5
  %81 = getelementptr inbounds [100000 x i32], [100000 x i32]* %2, i64 0, i64 %73
  %82 = bitcast i32* %81 to <4 x i32>*
  store <4 x i32> %77, <4 x i32>* %82, align 4, !tbaa !5
  %83 = getelementptr inbounds i32, i32* %81, i64 4
  %84 = bitcast i32* %83 to <4 x i32>*
  store <4 x i32> %80, <4 x i32>* %84, align 4, !tbaa !5
  %85 = or i64 %71, 8
  %86 = add i64 %52, %85
  %87 = add i64 %38, %85
  %88 = getelementptr inbounds [100000 x i32], [100000 x i32]* %2, i64 0, i64 %87
  %89 = bitcast i32* %88 to <4 x i32>*
  %90 = load <4 x i32>, <4 x i32>* %89, align 4, !tbaa !5
  %91 = getelementptr inbounds i32, i32* %88, i64 4
  %92 = bitcast i32* %91 to <4 x i32>*
  %93 = load <4 x i32>, <4 x i32>* %92, align 4, !tbaa !5
  %94 = getelementptr inbounds [100000 x i32], [100000 x i32]* %2, i64 0, i64 %86
  %95 = bitcast i32* %94 to <4 x i32>*
  store <4 x i32> %90, <4 x i32>* %95, align 4, !tbaa !5
  %96 = getelementptr inbounds i32, i32* %94, i64 4
  %97 = bitcast i32* %96 to <4 x i32>*
  store <4 x i32> %93, <4 x i32>* %97, align 4, !tbaa !5
  %98 = add nuw i64 %71, 16
  %99 = add i64 %72, -2
  %100 = icmp eq i64 %99, 0
  br i1 %100, label %101, label %70, !llvm.loop !11

101:                                              ; preds = %70, %63
  %102 = phi i64 [ 0, %63 ], [ %98, %70 ]
  %103 = icmp eq i64 %66, 0
  br i1 %103, label %117, label %104

104:                                              ; preds = %101
  %105 = add i64 %52, %102
  %106 = add i64 %38, %102
  %107 = getelementptr inbounds [100000 x i32], [100000 x i32]* %2, i64 0, i64 %106
  %108 = bitcast i32* %107 to <4 x i32>*
  %109 = load <4 x i32>, <4 x i32>* %108, align 4, !tbaa !5
  %110 = getelementptr inbounds i32, i32* %107, i64 4
  %111 = bitcast i32* %110 to <4 x i32>*
  %112 = load <4 x i32>, <4 x i32>* %111, align 4, !tbaa !5
  %113 = getelementptr inbounds [100000 x i32], [100000 x i32]* %2, i64 0, i64 %105
  %114 = bitcast i32* %113 to <4 x i32>*
  store <4 x i32> %109, <4 x i32>* %114, align 4, !tbaa !5
  %115 = getelementptr inbounds i32, i32* %113, i64 4
  %116 = bitcast i32* %115 to <4 x i32>*
  store <4 x i32> %112, <4 x i32>* %116, align 4, !tbaa !5
  br label %117

117:                                              ; preds = %101, %104
  %118 = icmp eq i64 %51, %64
  br i1 %118, label %128, label %119

119:                                              ; preds = %61, %117
  %120 = phi i64 [ %52, %61 ], [ %65, %117 ]
  br label %121

121:                                              ; preds = %119, %121
  %122 = phi i64 [ %123, %121 ], [ %120, %119 ]
  %123 = add nsw i64 %122, 1
  %124 = getelementptr inbounds [100000 x i32], [100000 x i32]* %2, i64 0, i64 %123
  %125 = load i32, i32* %124, align 4, !tbaa !5
  %126 = getelementptr inbounds [100000 x i32], [100000 x i32]* %2, i64 0, i64 %122
  store i32 %125, i32* %126, align 4, !tbaa !5
  %127 = icmp slt i64 %123, %26
  br i1 %127, label %121, label %128, !llvm.loop !13

128:                                              ; preds = %121, %117, %35, %58
  %129 = phi i32 [ %59, %58 ], [ %39, %35 ], [ %59, %117 ], [ %59, %121 ]
  %130 = icmp sgt i64 %37, 1
  %131 = add nsw i64 %37, -1
  %132 = add i64 %36, 1
  br i1 %130, label %35, label %30, !llvm.loop !15

133:                                              ; preds = %30, %143
  %134 = phi i64 [ %144, %143 ], [ 0, %30 ]
  %135 = phi i32 [ %146, %143 ], [ %33, %30 ]
  %136 = zext i32 %135 to i64
  %137 = icmp eq i64 %134, %136
  %138 = getelementptr inbounds [100000 x i32], [100000 x i32]* %2, i64 0, i64 %134
  %139 = load i32, i32* %138, align 4, !tbaa !5
  %140 = call nonnull align 8 dereferenceable(8) %"class.std::basic_ostream"* @_ZNSolsEi(%"class.std::basic_ostream"* nonnull align 8 dereferenceable(8) @_ZSt4cout, i32 %139)
  br i1 %137, label %143, label %141

141:                                              ; preds = %133
  %142 = call nonnull align 8 dereferenceable(8) %"class.std::basic_ostream"* @_ZSt16__ostream_insertIcSt11char_traitsIcEERSt13basic_ostreamIT_T0_ES6_PKS3_l(%"class.std::basic_ostream"* nonnull align 8 dereferenceable(8) %140, i8* nonnull getelementptr inbounds ([2 x i8], [2 x i8]* @.str, i64 0, i64 0), i64 1)
  br label %143

143:                                              ; preds = %133, %141
  %144 = add nuw nsw i64 %134, 1
  %145 = load i32, i32* %1, align 4, !tbaa !5
  %146 = add i32 %145, %32
  %147 = sext i32 %146 to i64
  %148 = icmp slt i64 %134, %147
  br i1 %148, label %133, label %149, !llvm.loop !16

149:                                              ; preds = %143, %30
  call void @llvm.lifetime.end.p0i8(i64 4, i8* nonnull %7) #7
  call void @llvm.lifetime.end.p0i8(i64 400000, i8* nonnull %6) #7
  call void @llvm.lifetime.end.p0i8(i64 4, i8* nonnull %4) #7
  ret i32 0
}

; Function Attrs: argmemonly mustprogress nofree nosync nounwind willreturn
declare void @llvm.lifetime.start.p0i8(i64 immarg, i8* nocapture) #4

declare nonnull align 8 dereferenceable(16) %"class.std::basic_istream"* @_ZNSirsERi(%"class.std::basic_istream"* nonnull align 8 dereferenceable(16), i32* nonnull align 4 dereferenceable(4)) local_unnamed_addr #0

declare nonnull align 8 dereferenceable(8) %"class.std::basic_ostream"* @_ZNSolsEi(%"class.std::basic_ostream"* nonnull align 8 dereferenceable(8), i32) local_unnamed_addr #0

; Function Attrs: argmemonly mustprogress nofree nosync nounwind willreturn
declare void @llvm.lifetime.end.p0i8(i64 immarg, i8* nocapture) #4

declare nonnull align 8 dereferenceable(8) %"class.std::basic_ostream"* @_ZSt16__ostream_insertIcSt11char_traitsIcEERSt13basic_ostreamIT_T0_ES6_PKS3_l(%"class.std::basic_ostream"* nonnull align 8 dereferenceable(8), i8*, i64) local_unnamed_addr #0

; Function Attrs: sspstrong uwtable
define internal void @_GLOBAL__sub_I_1009.cpp() #5 section ".text.startup" {
  tail call void @_ZNSt8ios_base4InitC1Ev(%"class.std::ios_base::Init"* nonnull align 1 dereferenceable(1) @_ZStL8__ioinit)
  %1 = tail call i32 @__cxa_atexit(void (i8*)* bitcast (void (%"class.std::ios_base::Init"*)* @_ZNSt8ios_base4InitD1Ev to void (i8*)*), i8* getelementptr inbounds (%"class.std::ios_base::Init", %"class.std::ios_base::Init"* @_ZStL8__ioinit, i64 0, i32 0), i8* nonnull @__dso_handle) #7
  ret void
}

; Function Attrs: nofree nosync nounwind readnone speculatable willreturn
declare i64 @llvm.smax.i64(i64, i64) #6


!llvm.module.flags = !{!0, !1, !2, !3}
!llvm.ident = !{!4}

!0 = !{i32 1, !"wchar_size", i32 4}
!1 = !{i32 7, !"PIC Level", i32 2}
!2 = !{i32 7, !"PIE Level", i32 2}
!3 = !{i32 7, !"uwtable", i32 1}
!4 = !{!"clang version 13.0.0"}
!5 = !{!6, !6, i64 0}
!6 = !{!"int", !7, i64 0}
!7 = !{!"omnipotent char", !8, i64 0}
!8 = !{!"Simple C++ TBAA"}
!9 = distinct !{!9, !10}
!10 = !{!"llvm.loop.mustprogress"}
!11 = distinct !{!11, !10, !12}
!12 = !{!"llvm.loop.isvectorized", i32 1}
!13 = distinct !{!13, !10, !14, !12}
!14 = !{!"llvm.loop.unroll.runtime.disable"}
!15 = distinct !{!15, !10}
!16 = distinct !{!16, !10}
